Certificate:
    Data:
        Version: 3 (0x2)
        Serial Number: 17995717058646744117 (0xf9bda151c7139c35)
    Signature Algorithm: sha1WithRSAEncryption
        Issuer: C=EU, O=Unity, CN=Unity Low Trust CA
        Validity
            Not Before: Jan  8 12:40:32 2014 GMT
            Not After : Jan  6 12:40:32 2024 GMT
        Subject: C=EU, O=Unity, CN=Unity Low Trust CA
        Subject Public Key Info:
            Public Key Algorithm: rsaEncryption
                Public-Key: (2048 bit)
                Modulus:
                    00:ac:b1:9a:b0:d5:43:9b:95:6d:0c:21:47:34:e5:
                    82:f7:ea:85:92:b3:95:59:a0:7c:60:69:f4:1d:9f:
                    40:79:5a:36:b0:5f:70:59:59:7b:5e:b6:fa:70:ab:
                    2f:62:9b:89:2e:9a:8d:b5:75:47:77:1e:e5:30:5b:
                    c2:35:09:7d:76:7c:cb:f1:b8:c8:30:0e:df:45:a2:
                    ef:3c:03:12:4f:6e:b3:02:ae:b8:00:cd:3e:33:2f:
                    e4:33:ce:09:00:c5:32:05:c3:48:50:ea:56:e7:88:
                    72:6b:95:f6:e9:09:b7:fe:68:77:6d:68:45:59:5f:
                    be:eb:04:f0:3b:59:67:d2:f5:da:02:27:c1:50:c6:
                    d9:78:bb:c7:b0:2b:fb:f4:03:4f:2c:77:ab:d5:81:
                    c8:d8:ab:80:63:7e:7d:8f:e9:81:50:26:dc:9f:12:
                    e3:6d:6a:8b:c9:12:43:f8:f2:dd:1c:e8:52:76:a2:
                    dc:4d:09:a0:1f:5f:6a:f8:5e:07:43:e1:4b:4d:50:
                    34:f5:b9:02:ef:0c:a7:29:74:d2:3b:6a:87:1f:74:
                    5d:08:83:45:9b:95:d3:f0:d4:00:f7:08:27:76:26:
                    d9:94:35:26:b2:3a:dc:78:a5:20:1b:ad:2f:9f:19:
                    f3:2f:4e:6a:b9:2a:8f:0c:aa:38:18:0d:7b:3f:19:
                    bc:9b
                Exponent: 65537 (0x10001)
        X509v3 extensions:
            X509v3 Subject Key Identifier: 
                66:DE:CD:1C:D6:92:DA:A7:52:BA:46:F0:24:7B:3E:0C:72:07:C0:16
            X509v3 Authority Key Identifier: 
                keyid:66:DE:CD:1C:D6:92:DA:A7:52:BA:46:F0:24:7B:3E:0C:72:07:C0:16

            X509v3 Basic Constraints: 
                CA:TRUE
            X509v3 Key Usage: 
                Digital Signature, Non Repudiation, Certificate Sign, CRL Sign
            Netscape Cert Type: 
                SSL CA, S/MIME CA
    Signature Algorithm: sha1WithRSAEncryption
         a0:56:5f:9a:0f:09:2b:3f:c9:3f:f0:3d:50:a0:73:17:55:39:
         f4:b3:e0:93:d3:a0:d7:51:c6:bd:3a:ca:d0:e2:3b:94:e4:47:
         45:8b:95:51:5b:ca:bf:de:c5:00:a2:24:60:69:3b:bc:49:df:
         f0:a5:2c:66:15:3b:5d:f9:3c:4d:be:81:4d:c5:b9:9e:f6:85:
         a6:10:0b:0d:0d:40:f6:29:6c:78:76:0c:d9:14:05:f1:f2:d3:
         63:91:90:df:c5:34:d4:b9:20:6b:4f:ab:ec:29:cf:05:19:10:
         1b:22:77:79:33:fb:d8:f8:6e:36:cf:cf:b1:e5:2e:09:50:8f:
         3f:f5:39:10:15:57:69:7e:88:45:9e:d1:c6:bf:45:5a:a7:31:
         8c:01:e7:87:85:94:e3:5a:ff:1a:e0:29:25:00:b9:66:5e:dc:
         73:49:f7:3a:41:51:cb:8a:ab:51:ee:4c:79:25:00:cd:2c:1a:
         9b:0a:91:ba:c3:96:a4:57:f1:c0:44:27:73:34:fe:85:eb:d6:
         ac:dd:9a:65:c6:87:8f:0c:6c:58:f3:d3:09:08:13:26:8a:f8:
         f1:21:54:2f:2e:b0:c6:08:a4:05:da:1a:cd:7b:a4:43:f1:69:
         00:63:e8:db:0e:46:de:0d:59:de:52:b4:45:3c:b5:5e:25:7d:
         d4:42:d1:06
-----BEGIN CERTIFICATE-----
MIIDZzCCAk+gAwIBAgIJAPm9oVHHE5w1MA0GCSqGSIb3DQEBBQUAMDoxCzAJBgNV
BAYTAkVVMQ4wDAYDVQQKDAVVbml0eTEbMBkGA1UEAwwSVW5pdHkgTG93IFRydXN0
IENBMB4XDTE0MDEwODEyNDAzMloXDTI0MDEwNjEyNDAzMlowOjELMAkGA1UEBhMC
RVUxDjAMBgNVBAoMBVVuaXR5MRswGQYDVQQDDBJVbml0eSBMb3cgVHJ1c3QgQ0Ew
ggEiMA0GCSqGSIb3DQEBAQUAA4IBDwAwggEKAoIBAQCssZqw1UOblW0MIUc05YL3
6oWSs5VZoHxgafQdn0B5WjawX3BZWXtetvpwqy9im4kumo21dUd3HuUwW8I1CX12
fMvxuMgwDt9Fou88AxJPbrMCrrgAzT4zL+QzzgkAxTIFw0hQ6lbniHJrlfbpCbf+
aHdtaEVZX77rBPA7WWfS9doCJ8FQxtl4u8ewK/v0A08sd6vVgcjYq4Bjfn2P6YFQ
JtyfEuNtaovJEkP48t0c6FJ2otxNCaAfX2r4XgdD4UtNUDT1uQLvDKcpdNI7aocf
dF0Ig0WbldPw1AD3CCd2JtmUNSayOtx4pSAbrS+fGfMvTmq5Ko8MqjgYDXs/Gbyb
AgMBAAGjcDBuMB0GA1UdDgQWBBRm3s0c1pLap1K6RvAkez4McgfAFjAfBgNVHSME
GDAWgBRm3s0c1pLap1K6RvAkez4McgfAFjAMBgNVHRMEBTADAQH/MAsGA1UdDwQE
AwIBxjARBglghkgBhvhCAQEEBAMCAQYwDQYJKoZIhvcNAQEFBQADggEBAKBWX5oP
CSs/yT/wPVCgcxdVOfSz4JPToNdRxr06ytDiO5TkR0WLlVFbyr/exQCiJGBpO7xJ
3/ClLGYVO135PE2+gU3FuZ72haYQCw0NQPYpbHh2DNkUBfHy02ORkN/FNNS5IGtP
q+wpzwUZEBsid3kz+9j4bjbPz7HlLglQjz/1ORAVV2l+iEWe0ca/RVqnMYwB54eF
lONa/xrgKSUAuWZe3HNJ9zpBUcuKq1HuTHklAM0sGpsKkbrDlqRX8cBEJ3M0/oXr
1qzdmmXGh48MbFjz0wkIEyaK+PEhVC8usMYIpAXaGs17pEPxaQBj6NsORt4NWd5S
tEU8tV4lfdRC0QY=
-----END CERTIFICATE-----
